#include <math.h>
#include <stdio.h>
#include <stdlib.h>
#include <string.h>

int main()
{
	int f,i,j,n;
	scanf("%d",&n);
	if(n==1){
		printf("End\n");
		return 0;
	}
	do{
		if(n>1&&n%2!=0){
			f=(n*3)+1;
			printf("%d*3+1=%d\n",n,f);
			n=(n*3)+1;
		}
		if(n>1&&(n%2)==0){
			f=n/2;
			printf("%d/2=%d\n",n,f);
			n=n/2;
		}
	}while(n>1);
	printf("End\n");
	return 0;
}

