; ModuleID = '34/933.c'
source_filename = "34/933.c"
target datalayout = "e-m:e-p270:32:32-p271:32:32-p272:64:64-i64:64-f80:128-n8:16:32:64-S128"
target triple = "x86_64-pc-linux-gnu"

@.str = private unnamed_addr constant [3 x i8] c"%d\00", align 1
@.str.1 = private unnamed_addr constant [5 x i8] c"End\0A\00", align 1
@.str.2 = private unnamed_addr constant [11 x i8] c"%d*3+1=%d\0A\00", align 1
@.str.3 = private unnamed_addr constant [9 x i8] c"%d/2=%d\0A\00", align 1

; Function Attrs: noinline nounwind uwtable
define dso_local i32 @main() #0 {
  %1 = alloca i32, align 4
  %2 = alloca i32, align 4
  %3 = alloca i32, align 4
  %4 = alloca i32, align 4
  %5 = alloca i32, align 4
  store i32 0, i32* %1, align 4
  %6 = call i32 (i8*, ...) @__isoc99_scanf(i8* getelementptr inbounds ([3 x i8], [3 x i8]* @.str, i64 0, i64 0), i32* %5)
  %7 = load i32, i32* %5, align 4
  %8 = icmp eq i32 %7, 1
  br i1 %8, label %9, label %11

9:                                                ; preds = %0
  %10 = call i32 (i8*, ...) @printf(i8* getelementptr inbounds ([5 x i8], [5 x i8]* @.str.1, i64 0, i64 0))
  store i32 0, i32* %1, align 4
  br label %50

11:                                               ; preds = %0
  br label %12

12:                                               ; preds = %45, %11
  %13 = load i32, i32* %5, align 4
  %14 = icmp sgt i32 %13, 1
  br i1 %14, label %15, label %29

15:                                               ; preds = %12
  %16 = load i32, i32* %5, align 4
  %17 = srem i32 %16, 2
  %18 = icmp ne i32 %17, 0
  br i1 %18, label %19, label %29

19:                                               ; preds = %15
  %20 = load i32, i32* %5, align 4
  %21 = mul nsw i32 %20, 3
  %22 = add nsw i32 %21, 1
  store i32 %22, i32* %2, align 4
  %23 = load i32, i32* %5, align 4
  %24 = load i32, i32* %2, align 4
  %25 = call i32 (i8*, ...) @printf(i8* getelementptr inbounds ([11 x i8], [11 x i8]* @.str.2, i64 0, i64 0), i32 %23, i32 %24)
  %26 = load i32, i32* %5, align 4
  %27 = mul nsw i32 %26, 3
  %28 = add nsw i32 %27, 1
  store i32 %28, i32* %5, align 4
  br label %29

29:                                               ; preds = %19, %15, %12
  %30 = load i32, i32* %5, align 4
  %31 = icmp sgt i32 %30, 1
  br i1 %31, label %32, label %44

32:                                               ; preds = %29
  %33 = load i32, i32* %5, align 4
  %34 = srem i32 %33, 2
  %35 = icmp eq i32 %34, 0
  br i1 %35, label %36, label %44

36:                                               ; preds = %32
  %37 = load i32, i32* %5, align 4
  %38 = sdiv i32 %37, 2
  store i32 %38, i32* %2, align 4
  %39 = load i32, i32* %5, align 4
  %40 = load i32, i32* %2, align 4
  %41 = call i32 (i8*, ...) @printf(i8* getelementptr inbounds ([9 x i8], [9 x i8]* @.str.3, i64 0, i64 0), i32 %39, i32 %40)
  %42 = load i32, i32* %5, align 4
  %43 = sdiv i32 %42, 2
  store i32 %43, i32* %5, align 4
  br label %44

44:                                               ; preds = %36, %32, %29
  br label %45

45:                                               ; preds = %44
  %46 = load i32, i32* %5, align 4
  %47 = icmp sgt i32 %46, 1
  br i1 %47, label %12, label %48

48:                                               ; preds = %45
  %49 = call i32 (i8*, ...) @printf(i8* getelementptr inbounds ([5 x i8], [5 x i8]* @.str.1, i64 0, i64 0))
  store i32 0, i32* %1, align 4
  br label %50

50:                                               ; preds = %48, %9
  %51 = load i32, i32* %1, align 4
  ret i32 %51
}

declare dso_local i32 @__isoc99_scanf(i8*, ...) #1

declare dso_local i32 @printf(i8*, ...) #1


!llvm.module.flags = !{!0}
!llvm.ident = !{!1}

!0 = !{i32 1, !"wchar_size", i32 4}
!1 = !{!"clang version 10.0.0-4ubuntu1 "}
