; ModuleID = 'source-C-CXX/33/933.c'
source_filename = "source-C-CXX/33/933.c"
target datalayout = "e-m:e-p270:32:32-p271:32:32-p272:64:64-i64:64-f80:128-n8:16:32:64-S128"
target triple = "x86_64-pc-linux-gnu"

@.str = private unnamed_addr constant [3 x i8] c"%d\00", align 1
@.str.2 = private unnamed_addr constant [11 x i8] c"%d*3+1=%d\0A\00", align 1
@.str.3 = private unnamed_addr constant [9 x i8] c"%d/2=%d\0A\00", align 1
@str.4 = private unnamed_addr constant [4 x i8] c"End\00", align 1

; Function Attrs: nofree nounwind sspstrong uwtable
define dso_local i32 @main() local_unnamed_addr #0 {
  %1 = alloca i32, align 4
  %2 = bitcast i32* %1 to i8*
  call void @llvm.lifetime.start.p0i8(i64 4, i8* nonnull %2) #4
  %3 = call i32 (i8*, ...) @__isoc99_scanf(i8* getelementptr inbounds ([3 x i8], [3 x i8]* @.str, i64 0, i64 0), i32* nonnull %1)
  %4 = load i32, i32* %1, align 4, !tbaa !5
  %5 = icmp eq i32 %4, 1
  br i1 %5, label %33, label %6

6:                                                ; preds = %0, %30
  %7 = phi i32 [ %31, %30 ], [ %4, %0 ]
  %8 = icmp slt i32 %7, 2
  %9 = and i32 %7, 1
  %10 = icmp eq i32 %9, 0
  %11 = or i1 %8, %10
  br i1 %11, label %19, label %12

12:                                               ; preds = %6
  %13 = mul nsw i32 %7, 3
  %14 = add nsw i32 %13, 1
  %15 = call i32 (i8*, ...) @printf(i8* nonnull dereferenceable(1) getelementptr inbounds ([11 x i8], [11 x i8]* @.str.2, i64 0, i64 0), i32 %7, i32 %14)
  %16 = load i32, i32* %1, align 4, !tbaa !5
  %17 = mul nsw i32 %16, 3
  %18 = add nsw i32 %17, 1
  store i32 %18, i32* %1, align 4, !tbaa !5
  br label %19

19:                                               ; preds = %12, %6
  %20 = phi i32 [ %18, %12 ], [ %7, %6 ]
  %21 = icmp sgt i32 %20, 1
  %22 = and i32 %20, 1
  %23 = icmp eq i32 %22, 0
  %24 = and i1 %21, %23
  br i1 %24, label %25, label %30

25:                                               ; preds = %19
  %26 = lshr i32 %20, 1
  %27 = call i32 (i8*, ...) @printf(i8* nonnull dereferenceable(1) getelementptr inbounds ([9 x i8], [9 x i8]* @.str.3, i64 0, i64 0), i32 %20, i32 %26)
  %28 = load i32, i32* %1, align 4, !tbaa !5
  %29 = sdiv i32 %28, 2
  store i32 %29, i32* %1, align 4, !tbaa !5
  br label %30

30:                                               ; preds = %19, %25
  %31 = phi i32 [ %20, %19 ], [ %29, %25 ]
  %32 = icmp sgt i32 %31, 1
  br i1 %32, label %6, label %33, !llvm.loop !9

33:                                               ; preds = %30, %0
  %34 = phi i8* [ getelementptr inbounds ([4 x i8], [4 x i8]* @str.4, i64 0, i64 0), %0 ], [ getelementptr inbounds ([4 x i8], [4 x i8]* @str.4, i64 0, i64 0), %30 ]
  %35 = call i32 @puts(i8* nonnull dereferenceable(1) %34)
  call void @llvm.lifetime.end.p0i8(i64 4, i8* nonnull %2) #4
  ret i32 0
}

; Function Attrs: argmemonly mustprogress nofree nosync nounwind willreturn
declare void @llvm.lifetime.start.p0i8(i64 immarg, i8* nocapture) #1

; Function Attrs: nofree nounwind
declare noundef i32 @__isoc99_scanf(i8* nocapture noundef readonly, ...) local_unnamed_addr #2

; Function Attrs: nofree nounwind
declare noundef i32 @printf(i8* nocapture noundef readonly, ...) local_unnamed_addr #2

; Function Attrs: argmemonly mustprogress nofree nosync nounwind willreturn
declare void @llvm.lifetime.end.p0i8(i64 immarg, i8* nocapture) #1

; Function Attrs: nofree nounwind
declare noundef i32 @puts(i8* nocapture noundef readonly) local_unnamed_addr #3


!llvm.module.flags = !{!0, !1, !2, !3}
!llvm.ident = !{!4}

!0 = !{i32 1, !"wchar_size", i32 4}
!1 = !{i32 7, !"PIC Level", i32 2}
!2 = !{i32 7, !"PIE Level", i32 2}
!3 = !{i32 7, !"uwtable", i32 1}
!4 = !{!"clang version 13.0.0"}
!5 = !{!6, !6, i64 0}
!6 = !{!"int", !7, i64 0}
!7 = !{!"omnipotent char", !8, i64 0}
!8 = !{!"Simple C/C++ TBAA"}
!9 = distinct !{!9, !10}
!10 = !{!"llvm.loop.mustprogress"}
